; Function Attrs: null_pointer_is_valid sspstrong uwtable
define internal i32 @dissect_cms_T_capability(i1 noundef zeroext %0, ptr noundef %1, i32 noundef %2, ptr noundef %3, ptr noundef %4, i32 %5) #0 {
  %7 = getelementptr inbounds nuw i8, ptr %3, i64 16
  %8 = load ptr, ptr %7, align 8
  %9 = getelementptr inbounds nuw i8, ptr %8, i64 408
  %10 = load ptr, ptr %9, align 8
  %11 = load i32, ptr @proto_cms, align 4
  %12 = tail call ptr @p_get_proto_data(ptr noundef %10, ptr noundef %8, i32 noundef %11, i32 noundef 0)
  %.not.i = icmp eq ptr %12, null
  br i1 %.not.i, label %13, label %cms_get_private_data.exit

13:                                               ; preds = %6
  %14 = load ptr, ptr %9, align 8
  %15 = tail call noalias dereferenceable_or_null(16) ptr @wmem_alloc0(ptr noundef %14, i64 noundef 16) #5
  %16 = load ptr, ptr %9, align 8
  %17 = load i32, ptr @proto_cms, align 4
  tail call void @p_add_proto_data(ptr noundef %16, ptr noundef %8, i32 noundef %17, i32 noundef 0, ptr noundef %15)
  br label %cms_get_private_data.exit

cms_get_private_data.exit:                        ; preds = %6, %13
  %.0.i = phi ptr [ %12, %6 ], [ %15, %13 ]
  store ptr null, ptr %.0.i, align 8
  %18 = load i32, ptr @hf_cms_attrType, align 4
  %19 = tail call i32 @dissect_ber_object_identifier_str(i1 noundef zeroext %0, ptr noundef %3, ptr noundef %4, ptr noundef %1, i32 noundef %2, i32 noundef %18, ptr noundef %.0.i)
  %20 = load ptr, ptr %.0.i, align 8
  %.not = icmp eq ptr %20, null
  br i1 %.not, label %30, label %21

21:                                               ; preds = %cms_get_private_data.exit
  %22 = load ptr, ptr %7, align 8
  %23 = getelementptr inbounds nuw i8, ptr %22, i64 408
  %24 = load ptr, ptr %23, align 8
  %25 = tail call ptr @oid_resolved_from_string(ptr noundef %24, ptr noundef nonnull %20)
  %.not17 = icmp eq ptr %25, null
  br i1 %.not17, label %26, label %28

26:                                               ; preds = %21
  %27 = load ptr, ptr %.0.i, align 8
  br label %28

28:                                               ; preds = %21, %26
  %29 = phi ptr [ %27, %26 ], [ %25, %21 ]
  tail call void (ptr, ptr, ...) @proto_item_append_text(ptr noundef %4, ptr noundef nonnull @.str.686, ptr noundef %29)
  store ptr %4, ptr @cap_tree, align 8
  br label %30

30:                                               ; preds = %28, %cms_get_private_data.exit
  ret i32 %19
}